target datalayout = "e-m:e-p270:32:32-p271:32:32-p272:64:64-i64:64-i128:128-f80:128-n8:16:32:64-S128"
target triple = "x86_64-pc-linux-gnu"

%struct.dt_s_ = type { ptr, ptr, %struct.Dtdata_t, ptr, i32, ptr, ptr, ptr }
%struct.Dtdata_t = type { i32, ptr, %union.anon, i32, i32, i32 }
%union.anon = type { ptr }
%struct.Dtmethod_t = type { ptr, i32 }

; Function Attrs: nounwind uwtable
define ptr @dtview(ptr noundef %0, ptr noundef %1) #0 {
  %3 = alloca ptr, align 8
  %4 = alloca ptr, align 8
  %5 = alloca ptr, align 8
  %6 = alloca ptr, align 8
  %7 = alloca i32, align 4
  store ptr %0, ptr %4, align 8, !tbaa !3
  store ptr %1, ptr %5, align 8, !tbaa !3
  call void @llvm.lifetime.start.p0(i64 8, ptr %6) #4
  %8 = load ptr, ptr %4, align 8, !tbaa !3
  %9 = getelementptr inbounds nuw %struct.dt_s_, ptr %8, i32 0, i32 2
  %10 = getelementptr inbounds nuw %struct.Dtdata_t, ptr %9, i32 0, i32 0
  %11 = load i32, ptr %10, align 8, !tbaa !8
  %12 = and i32 %11, 4096
  %13 = icmp ne i32 %12, 0
  br i1 %13, label %14, label %17

14:                                               ; preds = %2
  %15 = load ptr, ptr %4, align 8, !tbaa !3
  %16 = call i32 @dtrestore(ptr noundef %15, ptr noundef null)
  br label %18

17:                                               ; preds = %2
  br label %18

18:                                               ; preds = %17, %14
  %19 = load ptr, ptr %5, align 8, !tbaa !3
  %20 = icmp ne ptr %19, null
  br i1 %20, label %21, label %42

21:                                               ; preds = %18
  %22 = load ptr, ptr %5, align 8, !tbaa !3
  %23 = getelementptr inbounds nuw %struct.dt_s_, ptr %22, i32 0, i32 2
  %24 = getelementptr inbounds nuw %struct.Dtdata_t, ptr %23, i32 0, i32 0
  %25 = load i32, ptr %24, align 8, !tbaa !8
  %26 = and i32 %25, 4096
  %27 = icmp ne i32 %26, 0
  br i1 %27, label %28, label %31

28:                                               ; preds = %21
  %29 = load ptr, ptr %5, align 8, !tbaa !3
  %30 = call i32 @dtrestore(ptr noundef %29, ptr noundef null)
  br label %32

31:                                               ; preds = %21
  br label %32

32:                                               ; preds = %31, %28
  %33 = load ptr, ptr %5, align 8, !tbaa !3
  %34 = getelementptr inbounds nuw %struct.dt_s_, ptr %33, i32 0, i32 3
  %35 = load ptr, ptr %34, align 8, !tbaa !14
  %36 = load ptr, ptr %4, align 8, !tbaa !3
  %37 = getelementptr inbounds nuw %struct.dt_s_, ptr %36, i32 0, i32 3
  %38 = load ptr, ptr %37, align 8, !tbaa !14
  %39 = icmp ne ptr %35, %38
  br i1 %39, label %40, label %41

40:                                               ; preds = %32
  store ptr null, ptr %3, align 8
  store i32 1, ptr %7, align 4
  br label %94

41:                                               ; preds = %32
  br label %42

42:                                               ; preds = %41, %18
  %43 = load ptr, ptr %5, align 8, !tbaa !3
  store ptr %43, ptr %6, align 8, !tbaa !3
  br label %44

44:                                               ; preds = %53, %42
  %45 = load ptr, ptr %6, align 8, !tbaa !3
  %46 = icmp ne ptr %45, null
  br i1 %46, label %47, label %57

47:                                               ; preds = %44
  %48 = load ptr, ptr %6, align 8, !tbaa !3
  %49 = load ptr, ptr %4, align 8, !tbaa !3
  %50 = icmp eq ptr %48, %49
  br i1 %50, label %51, label %52

51:                                               ; preds = %47
  store ptr null, ptr %3, align 8
  store i32 1, ptr %7, align 4
  br label %94

52:                                               ; preds = %47
  br label %53

53:                                               ; preds = %52
  %54 = load ptr, ptr %6, align 8, !tbaa !3
  %55 = getelementptr inbounds nuw %struct.dt_s_, ptr %54, i32 0, i32 5
  %56 = load ptr, ptr %55, align 8, !tbaa !15
  store ptr %56, ptr %6, align 8, !tbaa !3
  br label %44, !llvm.loop !16

57:                                               ; preds = %44
  %58 = load ptr, ptr %4, align 8, !tbaa !3
  %59 = getelementptr inbounds nuw %struct.dt_s_, ptr %58, i32 0, i32 5
  %60 = load ptr, ptr %59, align 8, !tbaa !15
  store ptr %60, ptr %6, align 8, !tbaa !3
  %61 = icmp ne ptr %60, null
  br i1 %61, label %62, label %67

62:                                               ; preds = %57
  %63 = load ptr, ptr %6, align 8, !tbaa !3
  %64 = getelementptr inbounds nuw %struct.dt_s_, ptr %63, i32 0, i32 4
  %65 = load i32, ptr %64, align 8, !tbaa !18
  %66 = sub nsw i32 %65, 1
  store i32 %66, ptr %64, align 8, !tbaa !18
  br label %67

67:                                               ; preds = %62, %57
  %68 = load ptr, ptr %4, align 8, !tbaa !3
  %69 = getelementptr inbounds nuw %struct.dt_s_, ptr %68, i32 0, i32 6
  store ptr null, ptr %69, align 8, !tbaa !19
  %70 = load ptr, ptr %4, align 8, !tbaa !3
  %71 = getelementptr inbounds nuw %struct.dt_s_, ptr %70, i32 0, i32 5
  store ptr null, ptr %71, align 8, !tbaa !15
  %72 = load ptr, ptr %5, align 8, !tbaa !3
  %73 = icmp ne ptr %72, null
  br i1 %73, label %83, label %74

74:                                               ; preds = %67
  %75 = load ptr, ptr %4, align 8, !tbaa !3
  %76 = getelementptr inbounds nuw %struct.dt_s_, ptr %75, i32 0, i32 3
  %77 = load ptr, ptr %76, align 8, !tbaa !14
  %78 = getelementptr inbounds nuw %struct.Dtmethod_t, ptr %77, i32 0, i32 0
  %79 = load ptr, ptr %78, align 8, !tbaa !20
  %80 = load ptr, ptr %4, align 8, !tbaa !3
  %81 = getelementptr inbounds nuw %struct.dt_s_, ptr %80, i32 0, i32 0
  store ptr %79, ptr %81, align 8, !tbaa !22
  %82 = load ptr, ptr %6, align 8, !tbaa !3
  store ptr %82, ptr %3, align 8
  store i32 1, ptr %7, align 4
  br label %94

83:                                               ; preds = %67
  %84 = load ptr, ptr %5, align 8, !tbaa !3
  %85 = load ptr, ptr %4, align 8, !tbaa !3
  %86 = getelementptr inbounds nuw %struct.dt_s_, ptr %85, i32 0, i32 5
  store ptr %84, ptr %86, align 8, !tbaa !15
  %87 = load ptr, ptr %4, align 8, !tbaa !3
  %88 = getelementptr inbounds nuw %struct.dt_s_, ptr %87, i32 0, i32 0
  store ptr @dtvsearch, ptr %88, align 8, !tbaa !22
  %89 = load ptr, ptr %5, align 8, !tbaa !3
  %90 = getelementptr inbounds nuw %struct.dt_s_, ptr %89, i32 0, i32 4
  %91 = load i32, ptr %90, align 8, !tbaa !18
  %92 = add nsw i32 %91, 1
  store i32 %92, ptr %90, align 8, !tbaa !18
  %93 = load ptr, ptr %5, align 8, !tbaa !3
  store ptr %93, ptr %3, align 8
  store i32 1, ptr %7, align 4
  br label %94

94:                                               ; preds = %83, %74, %51, %40
  call void @llvm.lifetime.end.p0(i64 8, ptr %6) #4
  %95 = load ptr, ptr %3, align 8
  ret ptr %95
}