; Function Attrs: nounwind uwtable
define ptr @dtview(ptr noundef %0, ptr noundef %1) local_unnamed_addr #0 {
  %3 = getelementptr inbounds nuw i8, ptr %0, i64 16
  %4 = load i32, ptr %3, align 8, !tbaa !3
  %5 = and i32 %4, 4096
  %.not = icmp eq i32 %5, 0
  br i1 %.not, label %8, label %6

6:                                                ; preds = %2
  %7 = tail call i32 @dtrestore(ptr noundef nonnull %0, ptr noundef null) #4
  br label %8

8:                                                ; preds = %2, %6
  %.not29 = icmp eq ptr %1, null
  br i1 %.not29, label %._crit_edge, label %9

9:                                                ; preds = %8
  %10 = getelementptr inbounds nuw i8, ptr %1, i64 16
  %11 = load i32, ptr %10, align 8, !tbaa !3
  %12 = and i32 %11, 4096
  %.not30 = icmp eq i32 %12, 0
  br i1 %.not30, label %15, label %13

13:                                               ; preds = %9
  %14 = tail call i32 @dtrestore(ptr noundef nonnull %1, ptr noundef null) #4
  br label %15

15:                                               ; preds = %9, %13
  %16 = getelementptr inbounds nuw i8, ptr %1, i64 56
  %17 = load ptr, ptr %16, align 8, !tbaa !13
  %18 = getelementptr inbounds nuw i8, ptr %0, i64 56
  %19 = load ptr, ptr %18, align 8, !tbaa !13
  %.not31 = icmp eq ptr %17, %19
  br i1 %.not31, label %.lr.ph, label %.loopexit

.lr.ph:                                           ; preds = %15, %21
  %.035 = phi ptr [ %23, %21 ], [ %1, %15 ]
  %20 = icmp eq ptr %.035, %0
  br i1 %20, label %.loopexit, label %21

21:                                               ; preds = %.lr.ph
  %22 = getelementptr inbounds nuw i8, ptr %.035, i64 72
  %23 = load ptr, ptr %22, align 8, !tbaa !14
  %.not32 = icmp eq ptr %23, null
  br i1 %.not32, label %._crit_edge, label %.lr.ph, !llvm.loop !15

._crit_edge:                                      ; preds = %21, %8
  %24 = getelementptr inbounds nuw i8, ptr %0, i64 72
  %25 = load ptr, ptr %24, align 8, !tbaa !14
  %.not33 = icmp eq ptr %25, null
  br i1 %.not33, label %30, label %26

26:                                               ; preds = %._crit_edge
  %27 = getelementptr inbounds nuw i8, ptr %25, i64 64
  %28 = load i32, ptr %27, align 8, !tbaa !17
  %29 = add nsw i32 %28, -1
  store i32 %29, ptr %27, align 8, !tbaa !17
  br label %30

30:                                               ; preds = %26, %._crit_edge
  tail call void @llvm.memset.p0.i64(ptr noundef nonnull align 8 dereferenceable(16) %24, i8 0, i64 16, i1 false)
  br i1 %.not29, label %31, label %35

31:                                               ; preds = %30
  %32 = getelementptr inbounds nuw i8, ptr %0, i64 56
  %33 = load ptr, ptr %32, align 8, !tbaa !13
  %34 = load ptr, ptr %33, align 8, !tbaa !18
  store ptr %34, ptr %0, align 8, !tbaa !20
  br label %.loopexit

35:                                               ; preds = %30
  store ptr %1, ptr %24, align 8, !tbaa !14
  store ptr @dtvsearch, ptr %0, align 8, !tbaa !20
  %36 = getelementptr inbounds nuw i8, ptr %1, i64 64
  %37 = load i32, ptr %36, align 8, !tbaa !17
  %38 = add nsw i32 %37, 1
  store i32 %38, ptr %36, align 8, !tbaa !17
  br label %.loopexit

.loopexit:                                        ; preds = %.lr.ph, %15, %35, %31
  %.026 = phi ptr [ %1, %35 ], [ %25, %31 ], [ null, %15 ], [ null, %.lr.ph ]
  ret ptr %.026
}